target datalayout = "e-m:e-p270:32:32-p271:32:32-p272:64:64-i64:64-i128:128-f80:128-n8:16:32:64-S128"
target triple = "x86_64-pc-linux-gnu"

%struct._object = type { %union.anon, ptr }
%union.anon = type { i64 }
%struct._typeobject = type { %struct.PyVarObject, ptr, i64, i64, ptr, i64, ptr, ptr, ptr, ptr, ptr, ptr, ptr, ptr, ptr, ptr, ptr, ptr, ptr, i64, ptr, ptr, ptr, ptr, i64, ptr, ptr, ptr, ptr, ptr, ptr, ptr, ptr, ptr, i64, ptr, ptr, ptr, ptr, ptr, ptr, ptr, ptr, ptr, ptr, ptr, i32, ptr, ptr, i8, i16 }
%struct.PyVarObject = type { %struct._object, i64 }

@.str.4 = private unnamed_addr constant [8 x i8] c"strxfrm\00", align 1
@PyExc_ValueError = external global ptr, align 8
@.str.14 = private unnamed_addr constant [24 x i8] c"embedded null character\00", align 1
@.str.39 = private unnamed_addr constant [4 x i8] c"str\00", align 1
@.str.40 = private unnamed_addr constant [9 x i8] c"argument\00", align 1
@PyExc_OSError = external global ptr, align 8

; Function Attrs: nounwind uwtable
define internal ptr @_locale_strxfrm_impl(ptr noundef %0, ptr noundef %1) #0 {
  %3 = alloca ptr, align 8
  %4 = alloca ptr, align 8
  %5 = alloca ptr, align 8
  %6 = alloca i64, align 8
  %7 = alloca ptr, align 8
  %8 = alloca ptr, align 8
  %9 = alloca i64, align 8
  %10 = alloca ptr, align 8
  %11 = alloca ptr, align 8
  %12 = alloca i32, align 4
  store ptr %0, ptr %4, align 8, !tbaa !4
  store ptr %1, ptr %5, align 8, !tbaa !4
  call void @llvm.lifetime.start.p0(i64 8, ptr %6) #9
  call void @llvm.lifetime.start.p0(i64 8, ptr %7) #9
  store ptr null, ptr %7, align 8, !tbaa !58
  call void @llvm.lifetime.start.p0(i64 8, ptr %8) #9
  store ptr null, ptr %8, align 8, !tbaa !58
  call void @llvm.lifetime.start.p0(i64 8, ptr %9) #9
  call void @llvm.lifetime.start.p0(i64 8, ptr %10) #9
  store ptr null, ptr %10, align 8, !tbaa !4
  %13 = load ptr, ptr %5, align 8, !tbaa !4
  %14 = call ptr @PyUnicode_AsWideCharString(ptr noundef %13, ptr noundef %6)
  store ptr %14, ptr %7, align 8, !tbaa !58
  %15 = load ptr, ptr %7, align 8, !tbaa !58
  %16 = icmp eq ptr %15, null
  br i1 %16, label %17, label %18

17:                                               ; preds = %2
  br label %93

18:                                               ; preds = %2
  %19 = load ptr, ptr %7, align 8, !tbaa !58
  %20 = call i64 @wcslen(ptr noundef %19) #10
  %21 = load i64, ptr %6, align 8, !tbaa !18
  %22 = icmp ne i64 %20, %21
  br i1 %22, label %23, label %25

23:                                               ; preds = %18
  %24 = load ptr, ptr @PyExc_ValueError, align 8, !tbaa !4
  call void @PyErr_SetString(ptr noundef %24, ptr noundef @.str.14)
  br label %93

25:                                               ; preds = %18
  %26 = load i64, ptr %6, align 8, !tbaa !18
  %27 = add i64 %26, 1
  store i64 %27, ptr %6, align 8, !tbaa !18
  %28 = load i64, ptr %6, align 8, !tbaa !18
  %29 = icmp ugt i64 %28, 2305843009213693951
  br i1 %29, label %30, label %31

30:                                               ; preds = %25
  br label %35

31:                                               ; preds = %25
  %32 = load i64, ptr %6, align 8, !tbaa !18
  %33 = mul i64 %32, 4
  %34 = call ptr @PyMem_Malloc(i64 noundef %33)
  br label %35

35:                                               ; preds = %31, %30
  %36 = phi ptr [ null, %30 ], [ %34, %31 ]
  store ptr %36, ptr %8, align 8, !tbaa !58
  %37 = load ptr, ptr %8, align 8, !tbaa !58
  %38 = icmp ne ptr %37, null
  br i1 %38, label %41, label %39

39:                                               ; preds = %35
  %40 = call ptr @PyErr_NoMemory()
  br label %93

41:                                               ; preds = %35
  %42 = call ptr @__errno_location() #11
  store i32 0, ptr %42, align 4, !tbaa !14
  %43 = load ptr, ptr %8, align 8, !tbaa !58
  %44 = load ptr, ptr %7, align 8, !tbaa !58
  %45 = load i64, ptr %6, align 8, !tbaa !18
  %46 = call i64 @wcsxfrm(ptr noundef %43, ptr noundef %44, i64 noundef %45) #9
  store i64 %46, ptr %9, align 8, !tbaa !18
  %47 = call ptr @__errno_location() #11
  %48 = load i32, ptr %47, align 4, !tbaa !14
  %49 = icmp ne i32 %48, 0
  br i1 %49, label %50, label %57

50:                                               ; preds = %41
  %51 = call ptr @__errno_location() #11
  %52 = load i32, ptr %51, align 4, !tbaa !14
  %53 = icmp ne i32 %52, 34
  br i1 %53, label %54, label %57

54:                                               ; preds = %50
  %55 = load ptr, ptr @PyExc_OSError, align 8, !tbaa !4
  %56 = call ptr @PyErr_SetFromErrno(ptr noundef %55)
  br label %93

57:                                               ; preds = %50, %41
  %58 = load i64, ptr %9, align 8, !tbaa !18
  %59 = load i64, ptr %6, align 8, !tbaa !18
  %60 = icmp uge i64 %58, %59
  br i1 %60, label %61, label %89

61:                                               ; preds = %57
  call void @llvm.lifetime.start.p0(i64 8, ptr %11) #9
  %62 = load ptr, ptr %8, align 8, !tbaa !58
  %63 = load i64, ptr %9, align 8, !tbaa !18
  %64 = add i64 %63, 1
  %65 = mul i64 %64, 4
  %66 = call ptr @PyMem_Realloc(ptr noundef %62, i64 noundef %65)
  store ptr %66, ptr %11, align 8, !tbaa !58
  %67 = load ptr, ptr %11, align 8, !tbaa !58
  %68 = icmp ne ptr %67, null
  br i1 %68, label %71, label %69

69:                                               ; preds = %61
  %70 = call ptr @PyErr_NoMemory()
  store i32 2, ptr %12, align 4
  br label %86

71:                                               ; preds = %61
  %72 = load ptr, ptr %11, align 8, !tbaa !58
  store ptr %72, ptr %8, align 8, !tbaa !58
  %73 = call ptr @__errno_location() #11
  store i32 0, ptr %73, align 4, !tbaa !14
  %74 = load ptr, ptr %8, align 8, !tbaa !58
  %75 = load ptr, ptr %7, align 8, !tbaa !58
  %76 = load i64, ptr %9, align 8, !tbaa !18
  %77 = add i64 %76, 1
  %78 = call i64 @wcsxfrm(ptr noundef %74, ptr noundef %75, i64 noundef %77) #9
  store i64 %78, ptr %9, align 8, !tbaa !18
  %79 = call ptr @__errno_location() #11
  %80 = load i32, ptr %79, align 4, !tbaa !14
  %81 = icmp ne i32 %80, 0
  br i1 %81, label %82, label %85

82:                                               ; preds = %71
  %83 = load ptr, ptr @PyExc_OSError, align 8, !tbaa !4
  %84 = call ptr @PyErr_SetFromErrno(ptr noundef %83)
  store i32 2, ptr %12, align 4
  br label %86

85:                                               ; preds = %71
  store i32 0, ptr %12, align 4
  br label %86

86:                                               ; preds = %82, %69, %85
  call void @llvm.lifetime.end.p0(i64 8, ptr %11) #9
  %87 = load i32, ptr %12, align 4
  switch i32 %87, label %97 [
    i32 0, label %88
    i32 2, label %93
  ]

88:                                               ; preds = %86
  br label %89

89:                                               ; preds = %88, %57
  %90 = load ptr, ptr %8, align 8, !tbaa !58
  %91 = load i64, ptr %9, align 8, !tbaa !18
  %92 = call ptr @PyUnicode_FromWideChar(ptr noundef %90, i64 noundef %91)
  store ptr %92, ptr %10, align 8, !tbaa !4
  br label %93

93:                                               ; preds = %89, %86, %54, %39, %23, %17
  %94 = load ptr, ptr %8, align 8, !tbaa !58
  call void @PyMem_Free(ptr noundef %94)
  %95 = load ptr, ptr %7, align 8, !tbaa !58
  call void @PyMem_Free(ptr noundef %95)
  %96 = load ptr, ptr %10, align 8, !tbaa !4
  store ptr %96, ptr %3, align 8
  store i32 1, ptr %12, align 4
  br label %97

97:                                               ; preds = %93, %86
  call void @llvm.lifetime.end.p0(i64 8, ptr %10) #9
  call void @llvm.lifetime.end.p0(i64 8, ptr %9) #9
  call void @llvm.lifetime.end.p0(i64 8, ptr %8) #9
  call void @llvm.lifetime.end.p0(i64 8, ptr %7) #9
  call void @llvm.lifetime.end.p0(i64 8, ptr %6) #9
  %98 = load ptr, ptr %3, align 8
  ret ptr %98
}

; Function Attrs: inlinehint nounwind uwtable
define internal i32 @PyType_HasFeature(ptr noundef %0, i64 noundef %1) #3 {
  %3 = alloca ptr, align 8
  %4 = alloca i64, align 8
  %5 = alloca i64, align 8
  store ptr %0, ptr %3, align 8, !tbaa !22
  store i64 %1, ptr %4, align 8, !tbaa !18
  call void @llvm.lifetime.start.p0(i64 8, ptr %5) #9
  %6 = load ptr, ptr %3, align 8, !tbaa !22
  %7 = getelementptr inbounds nuw %struct._typeobject, ptr %6, i32 0, i32 19
  %8 = load i64, ptr %7, align 8, !tbaa !24
  store i64 %8, ptr %5, align 8, !tbaa !18
  %9 = load i64, ptr %5, align 8, !tbaa !18
  %10 = load i64, ptr %4, align 8, !tbaa !18
  %11 = and i64 %9, %10
  %12 = icmp ne i64 %11, 0
  %13 = zext i1 %12 to i32
  call void @llvm.lifetime.end.p0(i64 8, ptr %5) #9
  ret i32 %13
}

; Function Attrs: inlinehint nounwind uwtable
define internal ptr @_Py_TYPE(ptr noundef %0) #3 {
  %2 = alloca ptr, align 8
  store ptr %0, ptr %2, align 8, !tbaa !4
  %3 = load ptr, ptr %2, align 8, !tbaa !4
  %4 = getelementptr inbounds nuw %struct._object, ptr %3, i32 0, i32 1
  %5 = load ptr, ptr %4, align 8, !tbaa !32
  ret ptr %5
}

; Function Attrs: nounwind uwtable
define internal ptr @_locale_strxfrm(ptr noundef %0, ptr noundef %1) #0 {
  %3 = alloca ptr, align 8
  %4 = alloca ptr, align 8
  %5 = alloca ptr, align 8
  %6 = alloca ptr, align 8
  store ptr %0, ptr %3, align 8, !tbaa !4
  store ptr %1, ptr %4, align 8, !tbaa !4
  call void @llvm.lifetime.start.p0(i64 8, ptr %5) #9
  store ptr null, ptr %5, align 8, !tbaa !4
  call void @llvm.lifetime.start.p0(i64 8, ptr %6) #9
  %7 = load ptr, ptr %4, align 8, !tbaa !4
  %8 = call ptr @_Py_TYPE(ptr noundef %7)
  %9 = call i32 @PyType_HasFeature(ptr noundef %8, i64 noundef 268435456)
  %10 = icmp ne i32 %9, 0
  br i1 %10, label %13, label %11

11:                                               ; preds = %2
  %12 = load ptr, ptr %4, align 8, !tbaa !4
  call void @_PyArg_BadArgument(ptr noundef @.str.4, ptr noundef @.str.40, ptr noundef @.str.39, ptr noundef %12)
  br label %18

13:                                               ; preds = %2
  %14 = load ptr, ptr %4, align 8, !tbaa !4
  store ptr %14, ptr %6, align 8, !tbaa !4
  %15 = load ptr, ptr %3, align 8, !tbaa !4
  %16 = load ptr, ptr %6, align 8, !tbaa !4
  %17 = call ptr @_locale_strxfrm_impl(ptr noundef %15, ptr noundef %16)
  store ptr %17, ptr %5, align 8, !tbaa !4
  br label %18

18:                                               ; preds = %13, %11
  %19 = load ptr, ptr %5, align 8, !tbaa !4
  call void @llvm.lifetime.end.p0(i64 8, ptr %6) #9
  call void @llvm.lifetime.end.p0(i64 8, ptr %5) #9
  ret ptr %19
}