; Function Attrs: nounwind uwtable
define internal ptr @_locale_strxfrm(ptr readnone captures(none) %0, ptr noundef %1) #0 {
  %3 = alloca i64, align 8
  %4 = getelementptr i8, ptr %1, i64 8
  %.val = load ptr, ptr %4, align 8, !tbaa !12
  %5 = getelementptr i8, ptr %.val, i64 168
  %.val6 = load i64, ptr %5, align 8, !tbaa !15
  %6 = and i64 %.val6, 268435456
  %.not = icmp eq i64 %6, 0
  br i1 %.not, label %7, label %8

7:                                                ; preds = %2
  tail call void @_PyArg_BadArgument(ptr noundef nonnull @.str.4, ptr noundef nonnull @.str.40, ptr noundef nonnull @.str.39, ptr noundef nonnull %1) #8
  br label %47

8:                                                ; preds = %2
  call void @llvm.lifetime.start.p0(i64 8, ptr nonnull %3) #8
  %9 = call ptr @PyUnicode_AsWideCharString(ptr noundef nonnull %1, ptr noundef nonnull %3) #8
  %10 = icmp eq ptr %9, null
  br i1 %10, label %_locale_strxfrm_impl.exit, label %11

11:                                               ; preds = %8
  %12 = call i64 @wcslen(ptr noundef nonnull %9) #9
  %13 = load i64, ptr %3, align 8, !tbaa !25
  %.not.i = icmp eq i64 %12, %13
  br i1 %.not.i, label %16, label %14

14:                                               ; preds = %11
  %15 = load ptr, ptr @PyExc_ValueError, align 8, !tbaa !10
  call void @PyErr_SetString(ptr noundef %15, ptr noundef nonnull @.str.14) #8
  br label %_locale_strxfrm_impl.exit

16:                                               ; preds = %11
  %17 = add i64 %12, 1
  store i64 %17, ptr %3, align 8, !tbaa !25
  %18 = icmp ugt i64 %17, 2305843009213693951
  br i1 %18, label %.thread.i, label %19

19:                                               ; preds = %16
  %20 = shl nuw nsw i64 %17, 2
  %21 = call ptr @PyMem_Malloc(i64 noundef %20) #8
  %.not34.i = icmp eq ptr %21, null
  br i1 %.not34.i, label %.thread.i, label %23

.thread.i:                                        ; preds = %19, %16
  %22 = call ptr @PyErr_NoMemory() #8
  br label %_locale_strxfrm_impl.exit

23:                                               ; preds = %19
  %24 = tail call ptr @__errno_location() #10
  store i32 0, ptr %24, align 4, !tbaa !43
  %25 = load i64, ptr %3, align 8, !tbaa !25
  %26 = call i64 @wcsxfrm(ptr noundef nonnull %21, ptr noundef nonnull %9, i64 noundef %25) #8
  %27 = load i32, ptr %24, align 4, !tbaa !43
  switch i32 %27, label %28 [
    i32 0, label %31
    i32 34, label %31
  ]

28:                                               ; preds = %23
  %29 = load ptr, ptr @PyExc_OSError, align 8, !tbaa !10
  %30 = call ptr @PyErr_SetFromErrno(ptr noundef %29) #8
  br label %_locale_strxfrm_impl.exit

31:                                               ; preds = %23, %23
  %32 = load i64, ptr %3, align 8, !tbaa !25
  %.not37.i = icmp ult i64 %26, %32
  br i1 %.not37.i, label %45, label %33

33:                                               ; preds = %31
  %34 = add i64 %26, 1
  %35 = shl i64 %34, 2
  %36 = call ptr @PyMem_Realloc(ptr noundef nonnull %21, i64 noundef %35) #8
  %.not38.i = icmp eq ptr %36, null
  br i1 %.not38.i, label %37, label %39

37:                                               ; preds = %33
  %38 = call ptr @PyErr_NoMemory() #8
  br label %_locale_strxfrm_impl.exit

39:                                               ; preds = %33
  store i32 0, ptr %24, align 4, !tbaa !43
  %40 = call i64 @wcsxfrm(ptr noundef nonnull %36, ptr noundef nonnull %9, i64 noundef %34) #8
  %41 = load i32, ptr %24, align 4, !tbaa !43
  %.not39.i = icmp eq i32 %41, 0
  br i1 %.not39.i, label %45, label %42

42:                                               ; preds = %39
  %43 = load ptr, ptr @PyExc_OSError, align 8, !tbaa !10
  %44 = call ptr @PyErr_SetFromErrno(ptr noundef %43) #8
  br label %_locale_strxfrm_impl.exit

45:                                               ; preds = %39, %31
  %.124.i = phi ptr [ %21, %31 ], [ %36, %39 ]
  %.022.i = phi i64 [ %26, %31 ], [ %40, %39 ]
  %46 = call ptr @PyUnicode_FromWideChar(ptr noundef nonnull %.124.i, i64 noundef %.022.i) #8
  br label %_locale_strxfrm_impl.exit

_locale_strxfrm_impl.exit:                        ; preds = %8, %14, %.thread.i, %28, %37, %42, %45
  %.023.i = phi ptr [ null, %8 ], [ null, %14 ], [ %21, %28 ], [ %.124.i, %45 ], [ null, %.thread.i ], [ %21, %37 ], [ %36, %42 ]
  %.021.i = phi ptr [ null, %8 ], [ null, %14 ], [ null, %28 ], [ %46, %45 ], [ null, %.thread.i ], [ null, %37 ], [ null, %42 ]
  call void @PyMem_Free(ptr noundef %.023.i) #8
  call void @PyMem_Free(ptr noundef %9) #8
  call void @llvm.lifetime.end.p0(i64 8, ptr nonnull %3) #8
  br label %47

47:                                               ; preds = %_locale_strxfrm_impl.exit, %7
  %.0 = phi ptr [ %.021.i, %_locale_strxfrm_impl.exit ], [ null, %7 ]
  ret ptr %.0
}